; Function Attrs: mustprogress uwtable
define void @_Z14duAppendCircleP11duDebugDrawffffj(ptr noundef %0, float noundef %1, float noundef %2, float noundef %3, float noundef %4, i32 noundef %5) local_unnamed_addr #4 {
  %.not = icmp eq ptr %0, null
  br i1 %.not, label %.loopexit, label %7

7:                                                ; preds = %6
  %.b30 = load i1, ptr @_ZZ14duAppendCircleP11duDebugDrawffffjE4init, align 1
  br i1 %.b30, label %.loopexit31.preheader, label %8

8:                                                ; preds = %7
  store i1 true, ptr @_ZZ14duAppendCircleP11duDebugDrawffffjE4init, align 1
  br label %9

9:                                                ; preds = %8, %9
  %indvars.iv = phi i64 [ 0, %8 ], [ %indvars.iv.next, %9 ]
  %10 = trunc i64 %indvars.iv to i32
  %11 = sitofp i32 %10 to float
  %12 = fdiv float %11, 4.000000e+01
  %13 = fmul float %12, 0x400921FB60000000
  %14 = fmul float %13, 2.000000e+00
  %15 = tail call float @cosf(float noundef %14) #15
  %16 = shl nuw nsw i64 %indvars.iv, 1
  %17 = getelementptr inbounds [80 x float], ptr @_ZZ14duAppendCircleP11duDebugDrawffffjE3dir, i64 0, i64 %16
  store float %15, ptr %17, align 8
  %18 = tail call float @sinf(float noundef %14) #15
  %19 = or disjoint i64 %16, 1
  %20 = getelementptr inbounds [80 x float], ptr @_ZZ14duAppendCircleP11duDebugDrawffffjE3dir, i64 0, i64 %19
  store float %18, ptr %20, align 4
  %indvars.iv.next = add nuw nsw i64 %indvars.iv, 1
  %exitcond.not = icmp eq i64 %indvars.iv.next, 40
  br i1 %exitcond.not, label %.loopexit31.preheader, label %9, !llvm.loop !9

.loopexit31.preheader:                            ; preds = %9, %7
  br label %.loopexit31

.loopexit31:                                      ; preds = %.loopexit31.preheader, %.loopexit31
  %indvars.iv36 = phi i64 [ %indvars.iv.next37, %.loopexit31 ], [ 0, %.loopexit31.preheader ]
  %.034 = phi i32 [ %45, %.loopexit31 ], [ 39, %.loopexit31.preheader ]
  %21 = shl nuw nsw i32 %.034, 1
  %22 = zext nneg i32 %21 to i64
  %23 = getelementptr inbounds [80 x float], ptr @_ZZ14duAppendCircleP11duDebugDrawffffjE3dir, i64 0, i64 %22
  %24 = load float, ptr %23, align 8
  %25 = tail call float @llvm.fmuladd.f32(float %24, float %4, float %1)
  %26 = or disjoint i32 %21, 1
  %27 = zext nneg i32 %26 to i64
  %28 = getelementptr inbounds [80 x float], ptr @_ZZ14duAppendCircleP11duDebugDrawffffjE3dir, i64 0, i64 %27
  %29 = load float, ptr %28, align 4
  %30 = tail call float @llvm.fmuladd.f32(float %29, float %4, float %3)
  %31 = load ptr, ptr %0, align 8
  %32 = getelementptr inbounds i8, ptr %31, i64 48
  %33 = load ptr, ptr %32, align 8
  tail call void %33(ptr noundef nonnull align 8 dereferenceable(8) %0, float noundef %25, float noundef %2, float noundef %30, i32 noundef %5)
  %34 = shl nuw nsw i64 %indvars.iv36, 1
  %35 = getelementptr inbounds [80 x float], ptr @_ZZ14duAppendCircleP11duDebugDrawffffjE3dir, i64 0, i64 %34
  %36 = load float, ptr %35, align 8
  %37 = tail call float @llvm.fmuladd.f32(float %36, float %4, float %1)
  %38 = or disjoint i64 %34, 1
  %39 = getelementptr inbounds [80 x float], ptr @_ZZ14duAppendCircleP11duDebugDrawffffjE3dir, i64 0, i64 %38
  %40 = load float, ptr %39, align 4
  %41 = tail call float @llvm.fmuladd.f32(float %40, float %4, float %3)
  %42 = load ptr, ptr %0, align 8
  %43 = getelementptr inbounds i8, ptr %42, i64 48
  %44 = load ptr, ptr %43, align 8
  tail call void %44(ptr noundef nonnull align 8 dereferenceable(8) %0, float noundef %37, float noundef %2, float noundef %41, i32 noundef %5)
  %indvars.iv.next37 = add nuw nsw i64 %indvars.iv36, 1
  %45 = trunc i64 %indvars.iv36 to i32
  %exitcond39.not = icmp eq i64 %indvars.iv.next37, 40
  br i1 %exitcond39.not, label %.loopexit, label %.loopexit31, !llvm.loop !10

.loopexit:                                        ; preds = %.loopexit31, %6
  ret void
}